; Function Attrs: mustprogress uwtable
define hidden noundef i64 @_ZNK12opencv_caffe13TanHParameter12ByteSizeLongEv(ptr noundef nonnull align 8 dereferenceable(32) %0) unnamed_addr #3 align 2 {
  %2 = getelementptr inbounds nuw i8, ptr %0, i64 16
  %3 = load i32, ptr %2, align 8, !tbaa !71
  %4 = and i32 %3, 1
  %.not = icmp eq i32 %4, 0
  br i1 %.not, label %16, label %5

5:                                                ; preds = %1
  %6 = getelementptr inbounds nuw i8, ptr %0, i64 24
  %7 = load i32, ptr %6, align 8, !tbaa !489
  %8 = or i32 %7, 1
  %9 = sext i32 %8 to i64
  %10 = tail call range(i64 0, 65) i64 @llvm.ctlz.i64(i64 %9, i1 true)
  %11 = xor i64 %10, 63
  %12 = mul nuw nsw i64 %11, 9
  %13 = add nuw nsw i64 %12, 73
  %14 = lshr i64 %13, 6
  %15 = add nuw nsw i64 %14, 1
  br label %16

16:                                               ; preds = %5, %1
  %.0 = phi i64 [ %15, %5 ], [ 0, %1 ]
  %17 = getelementptr inbounds nuw i8, ptr %0, i64 20
  %18 = tail call noundef i64 @_ZNK6google8protobuf7Message29MaybeComputeUnknownFieldsSizeEmPNS0_8internal10CachedSizeE(ptr noundef nonnull align 8 dereferenceable(16) %0, i64 noundef %.0, ptr noundef nonnull %17)
  ret i64 %18
}